target datalayout = "e-m:e-p270:32:32-p271:32:32-p272:64:64-i64:64-i128:128-f80:128-n8:16:32:64-S128"
target triple = "x86_64-pc-linux-gnu"

%"struct.vcpkg::StringView" = type { ptr, i64 }
%"class.std::__cxx11::basic_string" = type { %"struct.std::__cxx11::basic_string<char>::_Alloc_hider", i64, %union.anon.5 }
%"struct.std::__cxx11::basic_string<char>::_Alloc_hider" = type { ptr }
%union.anon.5 = type { i64, [8 x i8] }
%"struct.vcpkg::SourceControlFileAndLocation" = type { %"class.std::unique_ptr", %"struct.vcpkg::Path", %"class.std::__cxx11::basic_string" }
%"class.std::unique_ptr" = type { %"struct.std::__uniq_ptr_data" }
%"struct.std::__uniq_ptr_data" = type { %"class.std::__uniq_ptr_impl" }
%"class.std::__uniq_ptr_impl" = type { %"class.std::tuple" }
%"class.std::tuple" = type { %"struct.std::_Tuple_impl" }
%"struct.std::_Tuple_impl" = type { %"struct.std::_Head_base.7" }
%"struct.std::_Head_base.7" = type { ptr }
%"struct.vcpkg::Path" = type { %"class.std::__cxx11::basic_string" }
%"struct.vcpkg::Optional" = type { %"struct.vcpkg::details::OptionalStorage" }
%"struct.vcpkg::details::OptionalStorage" = type { ptr }
%"struct.vcpkg::Version" = type <{ %"class.std::__cxx11::basic_string", i32, [4 x i8] }>
%"struct.std::_Rb_tree_header" = type { %"struct.std::_Rb_tree_node_base", i64 }
%"struct.std::_Rb_tree_node_base" = type { i32, ptr, ptr, ptr }
%"struct.std::_Rb_tree_key_compare.117" = type { %"struct.std::less.118" }
%"struct.std::less.118" = type { i8 }
%"struct.vcpkg::SourceControlFile" = type { %"class.std::unique_ptr.210", %"class.std::vector.218", %"struct.vcpkg::Json::Object" }
%"class.std::unique_ptr.210" = type { %"struct.std::__uniq_ptr_data.211" }
%"struct.std::__uniq_ptr_data.211" = type { %"class.std::__uniq_ptr_impl.212" }
%"class.std::__uniq_ptr_impl.212" = type { %"class.std::tuple.213" }
%"class.std::tuple.213" = type { %"struct.std::_Tuple_impl.214" }
%"struct.std::_Tuple_impl.214" = type { %"struct.std::_Head_base.217" }
%"struct.std::_Head_base.217" = type { ptr }
%"class.std::vector.218" = type { %"struct.std::_Vector_base.219" }
%"struct.std::_Vector_base.219" = type { %"struct.std::_Vector_base<std::unique_ptr<vcpkg::FeatureParagraph>, std::allocator<std::unique_ptr<vcpkg::FeatureParagraph>>>::_Vector_impl" }
%"struct.std::_Vector_base<std::unique_ptr<vcpkg::FeatureParagraph>, std::allocator<std::unique_ptr<vcpkg::FeatureParagraph>>>::_Vector_impl" = type { %"struct.std::_Vector_base<std::unique_ptr<vcpkg::FeatureParagraph>, std::allocator<std::unique_ptr<vcpkg::FeatureParagraph>>>::_Vector_impl_data" }
%"struct.std::_Vector_base<std::unique_ptr<vcpkg::FeatureParagraph>, std::allocator<std::unique_ptr<vcpkg::FeatureParagraph>>>::_Vector_impl_data" = type { ptr, ptr, ptr }
%"struct.vcpkg::Json::Object" = type { %"class.std::vector.223" }
%"class.std::vector.223" = type { %"struct.std::_Vector_base.224" }
%"struct.std::_Vector_base.224" = type { %"struct.std::_Vector_base<std::pair<std::__cxx11::basic_string<char>, vcpkg::Json::Value>, std::allocator<std::pair<std::__cxx11::basic_string<char>, vcpkg::Json::Value>>>::_Vector_impl" }
%"struct.std::_Vector_base<std::pair<std::__cxx11::basic_string<char>, vcpkg::Json::Value>, std::allocator<std::pair<std::__cxx11::basic_string<char>, vcpkg::Json::Value>>>::_Vector_impl" = type { %"struct.std::_Vector_base<std::pair<std::__cxx11::basic_string<char>, vcpkg::Json::Value>, std::allocator<std::pair<std::__cxx11::basic_string<char>, vcpkg::Json::Value>>>::_Vector_impl_data" }
%"struct.std::_Vector_base<std::pair<std::__cxx11::basic_string<char>, vcpkg::Json::Value>, std::allocator<std::pair<std::__cxx11::basic_string<char>, vcpkg::Json::Value>>>::_Vector_impl_data" = type { ptr, ptr, ptr }
%"class.std::vector.248" = type { %"struct.std::_Vector_base.249" }
%"struct.std::_Vector_base.249" = type { %"struct.std::_Vector_base<std::__cxx11::basic_string<char>, std::allocator<std::__cxx11::basic_string<char>>>::_Vector_impl" }
%"struct.std::_Vector_base<std::__cxx11::basic_string<char>, std::allocator<std::__cxx11::basic_string<char>>>::_Vector_impl" = type { %"struct.std::_Vector_base<std::__cxx11::basic_string<char>, std::allocator<std::__cxx11::basic_string<char>>>::_Vector_impl_data" }
%"struct.std::_Vector_base<std::__cxx11::basic_string<char>, std::allocator<std::__cxx11::basic_string<char>>>::_Vector_impl_data" = type { ptr, ptr, ptr }
%"class.std::vector.253" = type { %"struct.std::_Vector_base.254" }
%"struct.std::_Vector_base.254" = type { %"struct.std::_Vector_base<vcpkg::Dependency, std::allocator<vcpkg::Dependency>>::_Vector_impl" }
%"struct.std::_Vector_base<vcpkg::Dependency, std::allocator<vcpkg::Dependency>>::_Vector_impl" = type { %"struct.std::_Vector_base<vcpkg::Dependency, std::allocator<vcpkg::Dependency>>::_Vector_impl_data" }
%"struct.std::_Vector_base<vcpkg::Dependency, std::allocator<vcpkg::Dependency>>::_Vector_impl_data" = type { ptr, ptr, ptr }
%"struct.vcpkg::PlatformExpression::Expr" = type { %"class.std::unique_ptr.258" }
%"class.std::unique_ptr.258" = type { %"struct.std::__uniq_ptr_data.259" }
%"struct.std::__uniq_ptr_data.259" = type { %"class.std::__uniq_ptr_impl.260" }
%"class.std::__uniq_ptr_impl.260" = type { %"class.std::tuple.261" }
%"class.std::tuple.261" = type { %"struct.std::_Tuple_impl.262" }
%"struct.std::_Tuple_impl.262" = type { %"struct.std::_Head_base.265" }
%"struct.std::_Head_base.265" = type { ptr }
%"struct.vcpkg::Optional.266" = type { %"struct.vcpkg::details::OptionalStorage.267" }
%"struct.vcpkg::details::OptionalStorage.267" = type { i8, %union.anon.268 }
%union.anon.268 = type { %"class.std::__cxx11::basic_string" }
%"class.std::vector.269" = type { %"struct.std::_Vector_base.270" }
%"struct.std::_Vector_base.270" = type { %"struct.std::_Vector_base<vcpkg::DependencyRequestedFeature, std::allocator<vcpkg::DependencyRequestedFeature>>::_Vector_impl" }
%"struct.std::_Vector_base<vcpkg::DependencyRequestedFeature, std::allocator<vcpkg::DependencyRequestedFeature>>::_Vector_impl" = type { %"struct.std::_Vector_base<vcpkg::DependencyRequestedFeature, std::allocator<vcpkg::DependencyRequestedFeature>>::_Vector_impl_data" }
%"struct.std::_Vector_base<vcpkg::DependencyRequestedFeature, std::allocator<vcpkg::DependencyRequestedFeature>>::_Vector_impl_data" = type { ptr, ptr, ptr }
%"struct.vcpkg::SourceParagraph" = type { %"class.std::__cxx11::basic_string", i32, [4 x i8], %"struct.vcpkg::Version", %"class.std::vector.248", %"class.std::vector.248", %"class.std::vector.248", %"class.std::__cxx11::basic_string", %"class.std::__cxx11::basic_string", %"class.std::vector.253", %"class.std::vector.276", %"class.std::vector.269", %"struct.vcpkg::Optional.266", %"struct.vcpkg::Optional.266", %"struct.vcpkg::Optional.281", %"struct.vcpkg::Json::Object", %"struct.vcpkg::PlatformExpression::Expr", %"struct.vcpkg::Json::Object" }
%"class.std::vector.276" = type { %"struct.std::_Vector_base.277" }
%"struct.std::_Vector_base.277" = type { %"struct.std::_Vector_base<vcpkg::DependencyOverride, std::allocator<vcpkg::DependencyOverride>>::_Vector_impl" }
%"struct.std::_Vector_base<vcpkg::DependencyOverride, std::allocator<vcpkg::DependencyOverride>>::_Vector_impl" = type { %"struct.std::_Vector_base<vcpkg::DependencyOverride, std::allocator<vcpkg::DependencyOverride>>::_Vector_impl_data" }
%"struct.std::_Vector_base<vcpkg::DependencyOverride, std::allocator<vcpkg::DependencyOverride>>::_Vector_impl_data" = type { ptr, ptr, ptr }
%"struct.vcpkg::Optional.281" = type { %"struct.vcpkg::details::OptionalStorage.282" }
%"struct.vcpkg::details::OptionalStorage.282" = type { i8, %union.anon.283 }
%union.anon.283 = type { %"struct.vcpkg::Json::Object" }
%"struct.vcpkg::(anonymous namespace)::OverlayProviderImpl" = type { %"struct.vcpkg::IFullOverlayProvider", ptr, %"class.std::vector.356", %"class.std::map.361" }
%"struct.vcpkg::IFullOverlayProvider" = type { %"struct.vcpkg::IOverlayProvider" }
%"struct.vcpkg::IOverlayProvider" = type { ptr }
%"class.std::vector.356" = type { %"struct.std::_Vector_base.357" }
%"struct.std::_Vector_base.357" = type { %"struct.std::_Vector_base<vcpkg::Path, std::allocator<vcpkg::Path>>::_Vector_impl" }
%"struct.std::_Vector_base<vcpkg::Path, std::allocator<vcpkg::Path>>::_Vector_impl" = type { %"struct.std::_Vector_base<vcpkg::Path, std::allocator<vcpkg::Path>>::_Vector_impl_data" }
%"struct.std::_Vector_base<vcpkg::Path, std::allocator<vcpkg::Path>>::_Vector_impl_data" = type { ptr, ptr, ptr }
%"class.std::map.361" = type { %"class.std::_Rb_tree.362" }
%"class.std::_Rb_tree.362" = type { %"struct.std::_Rb_tree<std::__cxx11::basic_string<char>, std::pair<const std::__cxx11::basic_string<char>, vcpkg::Optional<vcpkg::SourceControlFileAndLocation>>, std::_Select1st<std::pair<const std::__cxx11::basic_string<char>, vcpkg::Optional<vcpkg::SourceControlFileAndLocation>>>, std::less<void>>::_Rb_tree_impl" }
%"struct.std::_Rb_tree<std::__cxx11::basic_string<char>, std::pair<const std::__cxx11::basic_string<char>, vcpkg::Optional<vcpkg::SourceControlFileAndLocation>>, std::_Select1st<std::pair<const std::__cxx11::basic_string<char>, vcpkg::Optional<vcpkg::SourceControlFileAndLocation>>>, std::less<void>>::_Rb_tree_impl" = type { %"struct.std::_Rb_tree_key_compare.117", %"struct.std::_Rb_tree_header" }
%"struct.vcpkg::(anonymous namespace)::ManifestProviderImpl" = type { %"struct.vcpkg::IFullOverlayProvider", %"struct.vcpkg::(anonymous namespace)::OverlayProviderImpl", %"struct.vcpkg::SourceControlFileAndLocation" }

; Function Attrs: mustprogress nounwind uwtable
define linkonce_odr dso_local noundef nonnull align 8 dereferenceable(8) ptr @_ZNSt10_Head_baseILm0EPN5vcpkg15SourceParagraphELb0EE7_M_headERKS3_(ptr noundef nonnull align 8 dereferenceable(8) %0) #0 comdat align 2 {
  %2 = alloca ptr, align 8
  store ptr %0, ptr %2, align 8
  %3 = load ptr, ptr %2, align 8
  %4 = getelementptr inbounds %"struct.std::_Head_base.217", ptr %3, i32 0, i32 0
  ret ptr %4
}

; Function Attrs: mustprogress nounwind uwtable
define linkonce_odr dso_local noundef nonnull align 8 dereferenceable(8) ptr @_ZNSt11_Tuple_implILm0EJPN5vcpkg15SourceParagraphESt14default_deleteIS1_EEE7_M_headERKS5_(ptr noundef nonnull align 8 dereferenceable(8) %0) #0 comdat align 2 {
  %2 = alloca ptr, align 8
  store ptr %0, ptr %2, align 8
  %3 = load ptr, ptr %2, align 8
  %4 = call noundef nonnull align 8 dereferenceable(8) ptr @_ZNSt10_Head_baseILm0EPN5vcpkg15SourceParagraphELb0EE7_M_headERKS3_(ptr noundef nonnull align 8 dereferenceable(8) %3) #13
  ret ptr %4
}

; Function Attrs: mustprogress nounwind uwtable
define linkonce_odr dso_local noundef nonnull align 8 dereferenceable(8) ptr @_ZNSt10_Head_baseILm0EPN5vcpkg17SourceControlFileELb0EE7_M_headERKS3_(ptr noundef nonnull align 8 dereferenceable(8) %0) #0 comdat align 2 {
  %2 = alloca ptr, align 8
  store ptr %0, ptr %2, align 8
  %3 = load ptr, ptr %2, align 8
  %4 = getelementptr inbounds %"struct.std::_Head_base.7", ptr %3, i32 0, i32 0
  ret ptr %4
}

; Function Attrs: mustprogress nounwind uwtable
define linkonce_odr dso_local noundef nonnull align 8 dereferenceable(8) ptr @_ZSt12__get_helperILm0EPN5vcpkg15SourceParagraphEJSt14default_deleteIS1_EEERKT0_RKSt11_Tuple_implIXT_EJS5_DpT1_EE(ptr noundef nonnull align 8 dereferenceable(8) %0) #0 comdat {
  %2 = alloca ptr, align 8
  store ptr %0, ptr %2, align 8
  %3 = load ptr, ptr %2, align 8
  %4 = call noundef nonnull align 8 dereferenceable(8) ptr @_ZNSt11_Tuple_implILm0EJPN5vcpkg15SourceParagraphESt14default_deleteIS1_EEE7_M_headERKS5_(ptr noundef nonnull align 8 dereferenceable(8) %3) #13
  ret ptr %4
}

; Function Attrs: mustprogress nounwind uwtable
define linkonce_odr dso_local noundef nonnull align 8 dereferenceable(8) ptr @_ZNSt11_Tuple_implILm0EJPN5vcpkg17SourceControlFileESt14default_deleteIS1_EEE7_M_headERKS5_(ptr noundef nonnull align 8 dereferenceable(8) %0) #0 comdat align 2 {
  %2 = alloca ptr, align 8
  store ptr %0, ptr %2, align 8
  %3 = load ptr, ptr %2, align 8
  %4 = call noundef nonnull align 8 dereferenceable(8) ptr @_ZNSt10_Head_baseILm0EPN5vcpkg17SourceControlFileELb0EE7_M_headERKS3_(ptr noundef nonnull align 8 dereferenceable(8) %3) #13
  ret ptr %4
}

; Function Attrs: mustprogress nounwind uwtable
define linkonce_odr dso_local noundef nonnull align 8 dereferenceable(8) ptr @_ZSt3getILm0EJPN5vcpkg15SourceParagraphESt14default_deleteIS1_EEERKNSt13tuple_elementIXT_ESt5tupleIJDpT0_EEE4typeERKS9_(ptr noundef nonnull align 8 dereferenceable(8) %0) #0 comdat {
  %2 = alloca ptr, align 8
  store ptr %0, ptr %2, align 8
  %3 = load ptr, ptr %2, align 8
  %4 = call noundef nonnull align 8 dereferenceable(8) ptr @_ZSt12__get_helperILm0EPN5vcpkg15SourceParagraphEJSt14default_deleteIS1_EEERKT0_RKSt11_Tuple_implIXT_EJS5_DpT1_EE(ptr noundef nonnull align 8 dereferenceable(8) %3) #13
  ret ptr %4
}

; Function Attrs: mustprogress nounwind uwtable
define linkonce_odr dso_local noundef nonnull align 8 dereferenceable(8) ptr @_ZSt12__get_helperILm0EPN5vcpkg17SourceControlFileEJSt14default_deleteIS1_EEERKT0_RKSt11_Tuple_implIXT_EJS5_DpT1_EE(ptr noundef nonnull align 8 dereferenceable(8) %0) #0 comdat {
  %2 = alloca ptr, align 8
  store ptr %0, ptr %2, align 8
  %3 = load ptr, ptr %2, align 8
  %4 = call noundef nonnull align 8 dereferenceable(8) ptr @_ZNSt11_Tuple_implILm0EJPN5vcpkg17SourceControlFileESt14default_deleteIS1_EEE7_M_headERKS5_(ptr noundef nonnull align 8 dereferenceable(8) %3) #13
  ret ptr %4
}

; Function Attrs: mustprogress nounwind uwtable
define linkonce_odr dso_local noundef ptr @_ZNKSt15__uniq_ptr_implIN5vcpkg15SourceParagraphESt14default_deleteIS1_EE6_M_ptrEv(ptr noundef nonnull align 8 dereferenceable(8) %0) #0 comdat align 2 {
  %2 = alloca ptr, align 8
  store ptr %0, ptr %2, align 8
  %3 = load ptr, ptr %2, align 8
  %4 = getelementptr inbounds %"class.std::__uniq_ptr_impl.212", ptr %3, i32 0, i32 0
  %5 = call noundef nonnull align 8 dereferenceable(8) ptr @_ZSt3getILm0EJPN5vcpkg15SourceParagraphESt14default_deleteIS1_EEERKNSt13tuple_elementIXT_ESt5tupleIJDpT0_EEE4typeERKS9_(ptr noundef nonnull align 8 dereferenceable(8) %4) #13
  %6 = load ptr, ptr %5, align 8
  ret ptr %6
}

; Function Attrs: mustprogress nounwind uwtable
define linkonce_odr dso_local noundef nonnull align 8 dereferenceable(8) ptr @_ZSt3getILm0EJPN5vcpkg17SourceControlFileESt14default_deleteIS1_EEERKNSt13tuple_elementIXT_ESt5tupleIJDpT0_EEE4typeERKS9_(ptr noundef nonnull align 8 dereferenceable(8) %0) #0 comdat {
  %2 = alloca ptr, align 8
  store ptr %0, ptr %2, align 8
  %3 = load ptr, ptr %2, align 8
  %4 = call noundef nonnull align 8 dereferenceable(8) ptr @_ZSt12__get_helperILm0EPN5vcpkg17SourceControlFileEJSt14default_deleteIS1_EEERKT0_RKSt11_Tuple_implIXT_EJS5_DpT1_EE(ptr noundef nonnull align 8 dereferenceable(8) %3) #13
  ret ptr %4
}

; Function Attrs: mustprogress nounwind uwtable
define linkonce_odr dso_local noundef ptr @_ZNKSt10unique_ptrIN5vcpkg15SourceParagraphESt14default_deleteIS1_EE3getEv(ptr noundef nonnull align 8 dereferenceable(8) %0) #0 comdat align 2 {
  %2 = alloca ptr, align 8
  store ptr %0, ptr %2, align 8
  %3 = load ptr, ptr %2, align 8
  %4 = getelementptr inbounds %"class.std::unique_ptr.210", ptr %3, i32 0, i32 0
  %5 = call noundef ptr @_ZNKSt15__uniq_ptr_implIN5vcpkg15SourceParagraphESt14default_deleteIS1_EE6_M_ptrEv(ptr noundef nonnull align 8 dereferenceable(8) %4) #13
  ret ptr %5
}

; Function Attrs: mustprogress nounwind uwtable
define linkonce_odr dso_local noundef ptr @_ZNKSt15__uniq_ptr_implIN5vcpkg17SourceControlFileESt14default_deleteIS1_EE6_M_ptrEv(ptr noundef nonnull align 8 dereferenceable(8) %0) #0 comdat align 2 {
  %2 = alloca ptr, align 8
  store ptr %0, ptr %2, align 8
  %3 = load ptr, ptr %2, align 8
  %4 = getelementptr inbounds %"class.std::__uniq_ptr_impl", ptr %3, i32 0, i32 0
  %5 = call noundef nonnull align 8 dereferenceable(8) ptr @_ZSt3getILm0EJPN5vcpkg17SourceControlFileESt14default_deleteIS1_EEERKNSt13tuple_elementIXT_ESt5tupleIJDpT0_EEE4typeERKS9_(ptr noundef nonnull align 8 dereferenceable(8) %4) #13
  %6 = load ptr, ptr %5, align 8
  ret ptr %6
}

; Function Attrs: mustprogress nounwind uwtable
define linkonce_odr dso_local noundef ptr @_ZNKSt10unique_ptrIN5vcpkg15SourceParagraphESt14default_deleteIS1_EEptEv(ptr noundef nonnull align 8 dereferenceable(8) %0) #0 comdat align 2 {
  %2 = alloca ptr, align 8
  store ptr %0, ptr %2, align 8
  %3 = load ptr, ptr %2, align 8
  %4 = call noundef ptr @_ZNKSt10unique_ptrIN5vcpkg15SourceParagraphESt14default_deleteIS1_EE3getEv(ptr noundef nonnull align 8 dereferenceable(8) %3) #13
  ret ptr %4
}

; Function Attrs: mustprogress nounwind uwtable
define linkonce_odr dso_local noundef ptr @_ZNKSt10unique_ptrIN5vcpkg17SourceControlFileESt14default_deleteIS1_EE3getEv(ptr noundef nonnull align 8 dereferenceable(8) %0) #0 comdat align 2 {
  %2 = alloca ptr, align 8
  store ptr %0, ptr %2, align 8
  %3 = load ptr, ptr %2, align 8
  %4 = getelementptr inbounds %"class.std::unique_ptr", ptr %3, i32 0, i32 0
  %5 = call noundef ptr @_ZNKSt15__uniq_ptr_implIN5vcpkg17SourceControlFileESt14default_deleteIS1_EE6_M_ptrEv(ptr noundef nonnull align 8 dereferenceable(8) %4) #13
  ret ptr %5
}

; Function Attrs: mustprogress nounwind uwtable
define linkonce_odr dso_local void @_ZN5vcpkg7details15OptionalStorageIRKNS_28SourceControlFileAndLocationELb1EEC2ES4_(ptr noundef nonnull align 8 dereferenceable(8) %0, ptr noundef nonnull align 8 dereferenceable(72) %1) unnamed_addr #0 comdat align 2 {
  %3 = alloca ptr, align 8
  %4 = alloca ptr, align 8
  store ptr %0, ptr %3, align 8
  store ptr %1, ptr %4, align 8
  %5 = load ptr, ptr %3, align 8
  %6 = getelementptr inbounds %"struct.vcpkg::details::OptionalStorage", ptr %5, i32 0, i32 0
  %7 = load ptr, ptr %4, align 8
  store ptr %7, ptr %6, align 8
  ret void
}

; Function Attrs: mustprogress nounwind uwtable
define linkonce_odr dso_local noundef nonnull align 8 dereferenceable(32) ptr @_ZNK5vcpkg17SourceControlFile7to_nameB5cxx11Ev(ptr noundef nonnull align 8 dereferenceable(56) %0) #0 comdat align 2 {
  %2 = alloca ptr, align 8
  store ptr %0, ptr %2, align 8
  %3 = load ptr, ptr %2, align 8
  %4 = getelementptr inbounds %"struct.vcpkg::SourceControlFile", ptr %3, i32 0, i32 0
  %5 = call noundef ptr @_ZNKSt10unique_ptrIN5vcpkg15SourceParagraphESt14default_deleteIS1_EEptEv(ptr noundef nonnull align 8 dereferenceable(8) %4) #13
  %6 = getelementptr inbounds %"struct.vcpkg::SourceParagraph", ptr %5, i32 0, i32 0
  ret ptr %6
}

; Function Attrs: mustprogress nounwind uwtable
define linkonce_odr dso_local noundef ptr @_ZNKSt10unique_ptrIN5vcpkg17SourceControlFileESt14default_deleteIS1_EEptEv(ptr noundef nonnull align 8 dereferenceable(8) %0) #0 comdat align 2 {
  %2 = alloca ptr, align 8
  store ptr %0, ptr %2, align 8
  %3 = load ptr, ptr %2, align 8
  %4 = call noundef ptr @_ZNKSt10unique_ptrIN5vcpkg17SourceControlFileESt14default_deleteIS1_EE3getEv(ptr noundef nonnull align 8 dereferenceable(8) %3) #13
  ret ptr %4
}

; Function Attrs: mustprogress nounwind uwtable
define linkonce_odr dso_local void @_ZN5vcpkg8OptionalIRKNS_28SourceControlFileAndLocationEEC2IS3_TnNSt9enable_ifIXaantsr3stdE9is_same_vINSt5decayIT_E4typeES4_Esr3stdE18is_constructible_vINS_7details15OptionalStorageIS3_Lb1EEES8_EEiE4typeELi0EEEOS8_(ptr noundef nonnull align 8 dereferenceable(8) %0, ptr noundef nonnull align 8 dereferenceable(72) %1) unnamed_addr #0 comdat align 2 {
  %3 = alloca ptr, align 8
  %4 = alloca ptr, align 8
  store ptr %0, ptr %3, align 8
  store ptr %1, ptr %4, align 8
  %5 = load ptr, ptr %3, align 8
  %6 = load ptr, ptr %4, align 8
  call void @_ZN5vcpkg7details15OptionalStorageIRKNS_28SourceControlFileAndLocationELb1EEC2ES4_(ptr noundef nonnull align 8 dereferenceable(8) %5, ptr noundef nonnull align 8 dereferenceable(72) %6) #13
  ret void
}

; Function Attrs: mustprogress nounwind uwtable
define linkonce_odr dso_local noundef nonnull align 8 dereferenceable(32) ptr @_ZNK5vcpkg28SourceControlFileAndLocation7to_nameB5cxx11Ev(ptr noundef nonnull align 8 dereferenceable(72) %0) #0 comdat align 2 {
  %2 = alloca ptr, align 8
  store ptr %0, ptr %2, align 8
  %3 = load ptr, ptr %2, align 8
  %4 = getelementptr inbounds %"struct.vcpkg::SourceControlFileAndLocation", ptr %3, i32 0, i32 0
  %5 = call noundef ptr @_ZNKSt10unique_ptrIN5vcpkg17SourceControlFileESt14default_deleteIS1_EEptEv(ptr noundef nonnull align 8 dereferenceable(8) %4) #13
  %6 = call noundef nonnull align 8 dereferenceable(32) ptr @_ZNK5vcpkg17SourceControlFile7to_nameB5cxx11Ev(ptr noundef nonnull align 8 dereferenceable(56) %5) #13
  ret ptr %6
}

; Function Attrs: mustprogress uwtable
define internal ptr @_ZNK5vcpkg12_GLOBAL__N_120ManifestProviderImpl16get_control_fileENS_10StringViewE(ptr noundef nonnull align 8 dereferenceable(168) %0, ptr %1, i64 %2) unnamed_addr #1 align 2 {
  %4 = alloca %"struct.vcpkg::Optional", align 8
  %5 = alloca %"struct.vcpkg::StringView", align 8
  %6 = alloca ptr, align 8
  %7 = alloca %"struct.vcpkg::StringView", align 8
  %8 = alloca %"struct.vcpkg::StringView", align 8
  %9 = alloca %"struct.vcpkg::StringView", align 8
  %10 = getelementptr inbounds { ptr, i64 }, ptr %5, i32 0, i32 0
  store ptr %1, ptr %10, align 8
  %11 = getelementptr inbounds { ptr, i64 }, ptr %5, i32 0, i32 1
  store i64 %2, ptr %11, align 8
  store ptr %0, ptr %6, align 8
  %12 = load ptr, ptr %6, align 8
  call void @llvm.memcpy.p0.p0.i64(ptr align 8 %7, ptr align 8 %5, i64 16, i1 false)
  %13 = getelementptr inbounds %"struct.vcpkg::(anonymous namespace)::ManifestProviderImpl", ptr %12, i32 0, i32 2
  %14 = call noundef nonnull align 8 dereferenceable(32) ptr @_ZNK5vcpkg28SourceControlFileAndLocation7to_nameB5cxx11Ev(ptr noundef nonnull align 8 dereferenceable(72) %13) #13
  call void @_ZN5vcpkg10StringViewC1ERKNSt7__cxx1112basic_stringIcSt11char_traitsIcESaIcEEE(ptr noundef nonnull align 8 dereferenceable(16) %8, ptr noundef nonnull align 8 dereferenceable(32) %14) #13
  %15 = getelementptr inbounds { ptr, i64 }, ptr %7, i32 0, i32 0
  %16 = load ptr, ptr %15, align 8
  %17 = getelementptr inbounds { ptr, i64 }, ptr %7, i32 0, i32 1
  %18 = load i64, ptr %17, align 8
  %19 = getelementptr inbounds { ptr, i64 }, ptr %8, i32 0, i32 0
  %20 = load ptr, ptr %19, align 8
  %21 = getelementptr inbounds { ptr, i64 }, ptr %8, i32 0, i32 1
  %22 = load i64, ptr %21, align 8
  %23 = call noundef zeroext i1 @_ZN5vcpkgeqENS_10StringViewES0_(ptr %16, i64 %18, ptr %20, i64 %22) #13
  br i1 %23, label %24, label %26

24:                                               ; preds = %3
  %25 = getelementptr inbounds %"struct.vcpkg::(anonymous namespace)::ManifestProviderImpl", ptr %12, i32 0, i32 2
  call void @_ZN5vcpkg8OptionalIRKNS_28SourceControlFileAndLocationEEC2IS3_TnNSt9enable_ifIXaantsr3stdE9is_same_vINSt5decayIT_E4typeES4_Esr3stdE18is_constructible_vINS_7details15OptionalStorageIS3_Lb1EEES8_EEiE4typeELi0EEEOS8_(ptr noundef nonnull align 8 dereferenceable(8) %4, ptr noundef nonnull align 8 dereferenceable(72) %25) #13
  br label %35

26:                                               ; preds = %3
  %27 = getelementptr inbounds %"struct.vcpkg::(anonymous namespace)::ManifestProviderImpl", ptr %12, i32 0, i32 1
  call void @llvm.memcpy.p0.p0.i64(ptr align 8 %9, ptr align 8 %5, i64 16, i1 false)
  %28 = getelementptr inbounds { ptr, i64 }, ptr %9, i32 0, i32 0
  %29 = load ptr, ptr %28, align 8
  %30 = getelementptr inbounds { ptr, i64 }, ptr %9, i32 0, i32 1
  %31 = load i64, ptr %30, align 8
  %32 = call ptr @_ZNK5vcpkg12_GLOBAL__N_119OverlayProviderImpl16get_control_fileENS_10StringViewE(ptr noundef nonnull align 8 dereferenceable(88) %27, ptr %29, i64 %31)
  %33 = getelementptr inbounds %"struct.vcpkg::Optional", ptr %4, i32 0, i32 0
  %34 = getelementptr inbounds %"struct.vcpkg::details::OptionalStorage", ptr %33, i32 0, i32 0
  store ptr %32, ptr %34, align 8
  br label %35

35:                                               ; preds = %26, %24
  %36 = getelementptr inbounds %"struct.vcpkg::Optional", ptr %4, i32 0, i32 0
  %37 = getelementptr inbounds %"struct.vcpkg::details::OptionalStorage", ptr %36, i32 0, i32 0
  %38 = load ptr, ptr %37, align 8
  ret ptr %38
}