; Function Attrs: mustprogress uwtable
define internal ptr @_ZNK5vcpkg12_GLOBAL__N_120ManifestProviderImpl16get_control_fileENS_10StringViewE(ptr noundef nonnull align 8 dereferenceable(168) %0, ptr %1, i64 %2) unnamed_addr #1 align 2 {
  %4 = alloca %"struct.vcpkg::StringView", align 8
  %5 = getelementptr inbounds i8, ptr %0, i64 96
  %6 = load ptr, ptr %5, align 8
  %7 = load ptr, ptr %6, align 8
  call void @_ZN5vcpkg10StringViewC1ERKNSt7__cxx1112basic_stringIcSt11char_traitsIcESaIcEEE(ptr noundef nonnull align 8 dereferenceable(16) %4, ptr noundef nonnull align 8 dereferenceable(32) %7) #17
  %8 = load ptr, ptr %4, align 8
  %9 = getelementptr inbounds i8, ptr %4, i64 8
  %10 = load i64, ptr %9, align 8
  %11 = call noundef zeroext i1 @_ZN5vcpkgeqENS_10StringViewES0_(ptr %1, i64 %2, ptr %8, i64 %10) #17
  br i1 %11, label %15, label %12

12:                                               ; preds = %3
  %13 = getelementptr inbounds i8, ptr %0, i64 8
  %14 = call ptr @_ZNK5vcpkg12_GLOBAL__N_119OverlayProviderImpl16get_control_fileENS_10StringViewE(ptr noundef nonnull align 8 dereferenceable(88) %13, ptr %1, i64 %2)
  br label %15

15:                                               ; preds = %3, %12
  %.sroa.0.0 = phi ptr [ %14, %12 ], [ %5, %3 ]
  ret ptr %.sroa.0.0
}